target datalayout = "e-m:e-p270:32:32-p271:32:32-p272:64:64-i64:64-i128:128-f80:128-n8:16:32:64-S128"
target triple = "x86_64-pc-linux-gnu"

%class.PhaseValues = type { %class.PhaseTransform, i8, ptr, ptr, [137 x ptr], [137 x ptr], [20 x ptr] }
%class.PhaseTransform = type { ptr, %class.Phase }
%class.Phase = type { i32, ptr }
%class.Node = type <{ ptr, ptr, ptr, i32, i32, i32, i32, i32, i32, i32, [4 x i8] }>
%class.Type = type <{ ptr, ptr, i32, [4 x i8] }>
%class.TypeInteger.base = type { %class.Type.base, i16 }
%class.Type.base = type <{ ptr, ptr, i32 }>
%class.TypeLong = type { %class.TypeInteger.base, i64, i64 }
%class.Type_Array = type { ptr, i32, ptr }

@_ZN4Type3TOPE = external global ptr, align 8
@_ZN7TypeInt3INTE = external global ptr, align 8

; Function Attrs: mustprogress nounwind uwtable
define linkonce_odr hidden noundef ptr @_ZNK10Type_Array11fast_lookupEj(ptr noundef nonnull align 8 dereferenceable(24) %0, i32 noundef %1) #1 comdat align 2 {
  %3 = alloca ptr, align 8
  %4 = alloca i32, align 4
  store ptr %0, ptr %3, align 8
  store i32 %1, ptr %4, align 4
  %5 = load ptr, ptr %3, align 8
  %6 = getelementptr inbounds %class.Type_Array, ptr %5, i32 0, i32 2
  %7 = load ptr, ptr %6, align 8
  %8 = load i32, ptr %4, align 4
  %9 = zext i32 %8 to i64
  %10 = getelementptr inbounds ptr, ptr %7, i64 %9
  %11 = load ptr, ptr %10, align 8
  ret ptr %11
}

; Function Attrs: mustprogress nounwind uwtable
define linkonce_odr hidden noundef i64 @_ZNK8TypeLong7get_conEv(ptr noundef nonnull align 8 dereferenceable(40) %0) #1 comdat align 2 {
  %2 = alloca ptr, align 8
  store ptr %0, ptr %2, align 8
  %3 = load ptr, ptr %2, align 8
  %4 = getelementptr inbounds %class.TypeLong, ptr %3, i32 0, i32 1
  %5 = load i64, ptr %4, align 8
  ret i64 %5
}

; Function Attrs: mustprogress nounwind uwtable
define linkonce_odr hidden noundef zeroext i1 @_ZNK8TypeLong6is_conEv(ptr noundef nonnull align 8 dereferenceable(40) %0) #1 comdat align 2 {
  %2 = alloca ptr, align 8
  store ptr %0, ptr %2, align 8
  %3 = load ptr, ptr %2, align 8
  %4 = getelementptr inbounds %class.TypeLong, ptr %3, i32 0, i32 1
  %5 = load i64, ptr %4, align 8
  %6 = getelementptr inbounds %class.TypeLong, ptr %3, i32 0, i32 2
  %7 = load i64, ptr %6, align 8
  %8 = icmp eq i64 %5, %7
  ret i1 %8
}

; Function Attrs: mustprogress nounwind uwtable
define linkonce_odr hidden noundef ptr @_ZNK4Type8isa_longEv(ptr noundef nonnull align 8 dereferenceable(20) %0) #1 comdat align 2 {
  %2 = alloca ptr, align 8
  store ptr %0, ptr %2, align 8
  %3 = load ptr, ptr %2, align 8
  %4 = getelementptr inbounds %class.Type, ptr %3, i32 0, i32 2
  %5 = load i32, ptr %4, align 8
  %6 = icmp eq i32 %5, 4
  br i1 %6, label %7, label %8

7:                                                ; preds = %1
  br label %9

8:                                                ; preds = %1
  br label %9

9:                                                ; preds = %8, %7
  %10 = phi ptr [ %3, %7 ], [ null, %8 ]
  ret ptr %10
}

; Function Attrs: mustprogress nounwind uwtable
define linkonce_odr hidden noundef ptr @_ZNK11PhaseValues4typeEPK4Node(ptr noundef nonnull align 8 dereferenceable(2400) %0, ptr noundef %1) #1 comdat align 2 {
  %3 = alloca ptr, align 8
  %4 = alloca ptr, align 8
  %5 = alloca ptr, align 8
  store ptr %0, ptr %3, align 8
  store ptr %1, ptr %4, align 8
  %6 = load ptr, ptr %3, align 8
  %7 = getelementptr inbounds %class.PhaseValues, ptr %6, i32 0, i32 3
  %8 = load ptr, ptr %7, align 8
  %9 = load ptr, ptr %4, align 8
  %10 = getelementptr inbounds %class.Node, ptr %9, i32 0, i32 7
  %11 = load i32, ptr %10, align 8
  %12 = call noundef ptr @_ZNK10Type_Array11fast_lookupEj(ptr noundef nonnull align 8 dereferenceable(24) %8, i32 noundef %11)
  store ptr %12, ptr %5, align 8
  %13 = load ptr, ptr %5, align 8
  ret ptr %13
}

; Function Attrs: mustprogress nounwind uwtable
define linkonce_odr hidden noundef ptr @_ZNK4Node2inEj(ptr noundef nonnull align 8 dereferenceable(52) %0, i32 noundef %1) #1 comdat align 2 {
  %3 = alloca ptr, align 8
  %4 = alloca i32, align 4
  store ptr %0, ptr %3, align 8
  store i32 %1, ptr %4, align 4
  %5 = load ptr, ptr %3, align 8
  %6 = getelementptr inbounds %class.Node, ptr %5, i32 0, i32 1
  %7 = load ptr, ptr %6, align 8
  %8 = load i32, ptr %4, align 4
  %9 = zext i32 %8 to i64
  %10 = getelementptr inbounds ptr, ptr %7, i64 %9
  %11 = load ptr, ptr %10, align 8
  ret ptr %11
}

; Function Attrs: mustprogress nounwind uwtable
define hidden noundef ptr @_ZNK22CountLeadingZerosLNode5ValueEP8PhaseGVN(ptr noundef nonnull align 8 dereferenceable(52) %0, ptr noundef %1) unnamed_addr #1 align 2 {
  %3 = alloca ptr, align 8
  %4 = alloca ptr, align 8
  %5 = alloca ptr, align 8
  %6 = alloca ptr, align 8
  %7 = alloca ptr, align 8
  %8 = alloca i64, align 8
  %9 = alloca i32, align 4
  %10 = alloca i32, align 4
  store ptr %0, ptr %4, align 8
  store ptr %1, ptr %5, align 8
  %11 = load ptr, ptr %4, align 8
  %12 = load ptr, ptr %5, align 8
  %13 = call noundef ptr @_ZNK4Node2inEj(ptr noundef nonnull align 8 dereferenceable(52) %11, i32 noundef 1)
  %14 = call noundef ptr @_ZNK11PhaseValues4typeEPK4Node(ptr noundef nonnull align 8 dereferenceable(2400) %12, ptr noundef %13)
  store ptr %14, ptr %6, align 8
  %15 = load ptr, ptr %6, align 8
  %16 = load ptr, ptr @_ZN4Type3TOPE, align 8
  %17 = icmp eq ptr %15, %16
  br i1 %17, label %18, label %20

18:                                               ; preds = %2
  %19 = load ptr, ptr @_ZN4Type3TOPE, align 8
  store ptr %19, ptr %3, align 8
  br label %91

20:                                               ; preds = %2
  %21 = load ptr, ptr %6, align 8
  %22 = call noundef ptr @_ZNK4Type8isa_longEv(ptr noundef nonnull align 8 dereferenceable(20) %21)
  store ptr %22, ptr %7, align 8
  %23 = load ptr, ptr %7, align 8
  %24 = icmp ne ptr %23, null
  br i1 %24, label %25, label %89

25:                                               ; preds = %20
  %26 = load ptr, ptr %7, align 8
  %27 = call noundef zeroext i1 @_ZNK8TypeLong6is_conEv(ptr noundef nonnull align 8 dereferenceable(40) %26)
  br i1 %27, label %28, label %89

28:                                               ; preds = %25
  %29 = load ptr, ptr %7, align 8
  %30 = call noundef i64 @_ZNK8TypeLong7get_conEv(ptr noundef nonnull align 8 dereferenceable(40) %29)
  store i64 %30, ptr %8, align 8
  %31 = load i64, ptr %8, align 8
  %32 = icmp eq i64 %31, 0
  br i1 %32, label %33, label %35

33:                                               ; preds = %28
  %34 = call noundef ptr @_ZN7TypeInt4makeEi(i32 noundef 64)
  store ptr %34, ptr %3, align 8
  br label %91

35:                                               ; preds = %28
  store i32 1, ptr %9, align 4
  %36 = load i64, ptr %8, align 8
  %37 = lshr i64 %36, 32
  %38 = trunc i64 %37 to i32
  store i32 %38, ptr %10, align 4
  %39 = load i32, ptr %10, align 4
  %40 = icmp eq i32 %39, 0
  br i1 %40, label %41, label %46

41:                                               ; preds = %35
  %42 = load i32, ptr %9, align 4
  %43 = add nsw i32 %42, 32
  store i32 %43, ptr %9, align 4
  %44 = load i64, ptr %8, align 8
  %45 = trunc i64 %44 to i32
  store i32 %45, ptr %10, align 4
  br label %46

46:                                               ; preds = %41, %35
  %47 = load i32, ptr %10, align 4
  %48 = lshr i32 %47, 16
  %49 = icmp eq i32 %48, 0
  br i1 %49, label %50, label %55

50:                                               ; preds = %46
  %51 = load i32, ptr %9, align 4
  %52 = add nsw i32 %51, 16
  store i32 %52, ptr %9, align 4
  %53 = load i32, ptr %10, align 4
  %54 = shl i32 %53, 16
  store i32 %54, ptr %10, align 4
  br label %55

55:                                               ; preds = %50, %46
  %56 = load i32, ptr %10, align 4
  %57 = lshr i32 %56, 24
  %58 = icmp eq i32 %57, 0
  br i1 %58, label %59, label %64

59:                                               ; preds = %55
  %60 = load i32, ptr %9, align 4
  %61 = add nsw i32 %60, 8
  store i32 %61, ptr %9, align 4
  %62 = load i32, ptr %10, align 4
  %63 = shl i32 %62, 8
  store i32 %63, ptr %10, align 4
  br label %64

64:                                               ; preds = %59, %55
  %65 = load i32, ptr %10, align 4
  %66 = lshr i32 %65, 28
  %67 = icmp eq i32 %66, 0
  br i1 %67, label %68, label %73

68:                                               ; preds = %64
  %69 = load i32, ptr %9, align 4
  %70 = add nsw i32 %69, 4
  store i32 %70, ptr %9, align 4
  %71 = load i32, ptr %10, align 4
  %72 = shl i32 %71, 4
  store i32 %72, ptr %10, align 4
  br label %73

73:                                               ; preds = %68, %64
  %74 = load i32, ptr %10, align 4
  %75 = lshr i32 %74, 30
  %76 = icmp eq i32 %75, 0
  br i1 %76, label %77, label %82

77:                                               ; preds = %73
  %78 = load i32, ptr %9, align 4
  %79 = add nsw i32 %78, 2
  store i32 %79, ptr %9, align 4
  %80 = load i32, ptr %10, align 4
  %81 = shl i32 %80, 2
  store i32 %81, ptr %10, align 4
  br label %82

82:                                               ; preds = %77, %73
  %83 = load i32, ptr %10, align 4
  %84 = lshr i32 %83, 31
  %85 = load i32, ptr %9, align 4
  %86 = sub i32 %85, %84
  store i32 %86, ptr %9, align 4
  %87 = load i32, ptr %9, align 4
  %88 = call noundef ptr @_ZN7TypeInt4makeEi(i32 noundef %87)
  store ptr %88, ptr %3, align 8
  br label %91

89:                                               ; preds = %25, %20
  %90 = load ptr, ptr @_ZN7TypeInt3INTE, align 8
  store ptr %90, ptr %3, align 8
  br label %91

91:                                               ; preds = %89, %82, %33, %18
  %92 = load ptr, ptr %3, align 8
  ret ptr %92
}