; Function Attrs: mustprogress nounwind uwtable
define hidden noundef ptr @_ZNK22CountLeadingZerosLNode5ValueEP8PhaseGVN(ptr nocapture noundef nonnull readonly align 8 dereferenceable(52) %0, ptr nocapture noundef readonly %1) unnamed_addr #0 align 2 {
  %3 = getelementptr inbounds i8, ptr %0, i64 8
  %4 = load ptr, ptr %3, align 8
  %5 = getelementptr inbounds i8, ptr %4, i64 8
  %6 = load ptr, ptr %5, align 8
  %7 = getelementptr inbounds i8, ptr %1, i64 40
  %8 = load ptr, ptr %7, align 8
  %9 = getelementptr inbounds i8, ptr %6, i64 40
  %10 = load i32, ptr %9, align 8
  %11 = getelementptr inbounds i8, ptr %8, i64 16
  %12 = load ptr, ptr %11, align 8
  %13 = zext i32 %10 to i64
  %14 = getelementptr inbounds ptr, ptr %12, i64 %13
  %15 = load ptr, ptr %14, align 8
  %16 = load ptr, ptr @_ZN4Type3TOPE, align 8
  %17 = icmp eq ptr %15, %16
  br i1 %17, label %51, label %18

18:                                               ; preds = %2
  %19 = getelementptr inbounds i8, ptr %15, i64 16
  %20 = load i32, ptr %19, align 8
  %21 = icmp ne i32 %20, 4
  %.not39 = icmp eq ptr %15, null
  %.not = or i1 %.not39, %21
  br i1 %.not, label %49, label %22

22:                                               ; preds = %18
  %23 = getelementptr inbounds i8, ptr %15, i64 24
  %24 = load i64, ptr %23, align 8
  %25 = getelementptr inbounds i8, ptr %15, i64 32
  %26 = load i64, ptr %25, align 8
  %27 = icmp eq i64 %24, %26
  br i1 %27, label %28, label %49

28:                                               ; preds = %22
  %29 = icmp eq i64 %24, 0
  br i1 %29, label %30, label %32

30:                                               ; preds = %28
  %31 = tail call noundef ptr @_ZN7TypeInt4makeEi(i32 noundef 64) #2
  br label %51

32:                                               ; preds = %28
  %33 = lshr i64 %24, 32
  %34 = icmp ult i64 %24, 4294967296
  %spec.select = select i1 %34, i32 33, i32 1
  %spec.select38 = select i1 %34, i64 %24, i64 %33
  %.0 = trunc nuw i64 %spec.select38 to i32
  %35 = icmp ult i64 %spec.select38, 65536
  %36 = or disjoint i32 %spec.select, 16
  %37 = shl nuw i32 %.0, 16
  %.128 = select i1 %35, i32 %36, i32 %spec.select
  %.1 = select i1 %35, i32 %37, i32 %.0
  %38 = icmp ult i32 %.1, 16777216
  %39 = or disjoint i32 %.128, 8
  %40 = shl nuw i32 %.1, 8
  %.229 = select i1 %38, i32 %39, i32 %.128
  %.2 = select i1 %38, i32 %40, i32 %.1
  %41 = icmp ult i32 %.2, 268435456
  %42 = or disjoint i32 %.229, 4
  %43 = shl nuw i32 %.2, 4
  %.330 = select i1 %41, i32 %42, i32 %.229
  %.3 = select i1 %41, i32 %43, i32 %.2
  %44 = icmp ult i32 %.3, 1073741824
  %45 = add nuw nsw i32 %.330, 2
  %46 = shl nuw i32 %.3, 2
  %.431 = select i1 %44, i32 %45, i32 %.330
  %.4 = select i1 %44, i32 %46, i32 %.3
  %.neg = ashr i32 %.4, 31
  %47 = add nsw i32 %.neg, %.431
  %48 = tail call noundef ptr @_ZN7TypeInt4makeEi(i32 noundef %47) #2
  br label %51

49:                                               ; preds = %22, %18
  %50 = load ptr, ptr @_ZN7TypeInt3INTE, align 8
  br label %51

51:                                               ; preds = %2, %49, %32, %30
  %.032 = phi ptr [ %31, %30 ], [ %48, %32 ], [ %50, %49 ], [ %16, %2 ]
  ret ptr %.032
}